; Function Attrs: nounwind uwtable
define dso_local ptr @slurm_get_tmp_fs(ptr noundef %0) local_unnamed_addr #1 {
  %2 = load ptr, ptr @slurmdbd_conf, align 8
  %.not = icmp eq ptr %2, null
  br i1 %.not, label %3, label %12

3:                                                ; preds = %1
  %4 = tail call ptr @slurm_conf_lock() #19
  %.not6 = icmp eq ptr %0, null
  %5 = getelementptr inbounds nuw i8, ptr %4, i64 1464
  %6 = load ptr, ptr %5, align 8
  br i1 %.not6, label %7, label %9

7:                                                ; preds = %3
  %8 = tail call ptr @xstrdup(ptr noundef %6) #19
  br label %11

9:                                                ; preds = %3
  %10 = tail call ptr @slurm_conf_expand_slurmd_path(ptr noundef %6, ptr noundef nonnull %0, ptr noundef null) #19
  br label %11

11:                                               ; preds = %9, %7
  %.1 = phi ptr [ %10, %9 ], [ %8, %7 ]
  tail call void @slurm_conf_unlock() #19
  br label %12

12:                                               ; preds = %1, %11
  %.0 = phi ptr [ null, %1 ], [ %.1, %11 ]
  ret ptr %.0
}